target datalayout = "e-m:e-p270:32:32-p271:32:32-p272:64:64-i64:64-i128:128-f80:128-n8:16:32:64-S128"
target triple = "x86_64-pc-linux-gnu"

%class.V3ErrorCode = type { i8 }
%class.VNType = type { i16 }
%class.AstNode = type { ptr, ptr, ptr, ptr, ptr, ptr, ptr, ptr, %class.VNType, %struct.anon, i8, i32, ptr, ptr, ptr, ptr, %class.VNUser, i32, i32, %class.VNUser, %class.VNUser, i32, i32, %class.VNUser }
%struct.anon = type { i8 }
%class.VNUser = type { %union.anon.3 }
%union.anon.3 = type { ptr }

@_ZN7AstNode12s_editCntGblE = dso_local global i64 0, align 8
@.str.557 = private unnamed_addr constant [111 x i8] c"generated/home/dtcxzyw/WorkSpace/Projects/compilers/llvm-opt-benchmark/bench/verilator/verilator/src/V3Ast.cpp\00", align 1
@.str.621 = private unnamed_addr constant [25 x i8] c"New node already linked?\00", align 1
@.str.627 = private unnamed_addr constant [43 x i8] c"'this' node has no back, already unlinked?\00", align 1
@.str.628 = private unnamed_addr constant [32 x i8] c"m_headtailp not set on new node\00", align 1
@.str.629 = private unnamed_addr constant [32 x i8] c"Don't know where newp should go\00", align 1
@.str.630 = private unnamed_addr constant [21 x i8] c"-addHereThisAsNext: \00", align 1

; Function Attrs: mustprogress nounwind uwtable
define dso_local void @_ZN7AstNode15debugTreeChangeEPKS_PKcib(ptr noundef %0, ptr noundef %1, i32 noundef %2, i1 noundef zeroext %3) #5 align 2 {
  %5 = alloca ptr, align 8
  %6 = alloca ptr, align 8
  %7 = alloca i32, align 4
  %8 = alloca i8, align 1
  store ptr %0, ptr %5, align 8
  store ptr %1, ptr %6, align 8
  store i32 %2, ptr %7, align 4
  %9 = zext i1 %3 to i8
  store i8 %9, ptr %8, align 1
  ret void
}

; Function Attrs: mustprogress nounwind uwtable
define linkonce_odr dso_local void @_ZN7AstNode12editCountIncEv(ptr noundef nonnull align 8 dereferenceable(152) %0) #5 comdat align 2 {
  %2 = alloca ptr, align 8
  store ptr %0, ptr %2, align 8
  %3 = load i64, ptr @_ZN7AstNode12s_editCntGblE, align 8
  %4 = add i64 %3, 1
  store i64 %4, ptr @_ZN7AstNode12s_editCntGblE, align 8
  ret void
}

; Function Attrs: mustprogress nounwind uwtable
define linkonce_odr dso_local void @_ZN11V3ErrorCodeC2ENS_2enE(ptr noundef nonnull align 1 dereferenceable(1) %0, i8 noundef zeroext %1) unnamed_addr #5 comdat align 2 {
  %3 = alloca ptr, align 8
  %4 = alloca i8, align 1
  store ptr %0, ptr %3, align 8
  store i8 %1, ptr %4, align 1
  %5 = load ptr, ptr %3, align 8
  %6 = getelementptr inbounds %class.V3ErrorCode, ptr %5, i32 0, i32 0
  %7 = load i8, ptr %4, align 1
  store i8 %7, ptr %6, align 1
  ret void
}

; Function Attrs: mustprogress nounwind uwtable
define linkonce_odr dso_local noundef ptr @_ZNK7AstNode5backpEv(ptr noundef nonnull align 8 dereferenceable(152) %0) #5 comdat align 2 {
  %2 = alloca ptr, align 8
  store ptr %0, ptr %2, align 8
  %3 = load ptr, ptr %2, align 8
  %4 = getelementptr inbounds %class.AstNode, ptr %3, i32 0, i32 2
  %5 = load ptr, ptr %4, align 8
  ret ptr %5
}

; Function Attrs: mustprogress uwtable
define dso_local void @_ZN7AstNode17addHereThisAsNextEPS_(ptr noundef nonnull align 8 dereferenceable(152) %0, ptr noundef %1) #4 align 2 {
  %3 = alloca ptr, align 8
  %4 = alloca ptr, align 8
  %5 = alloca %class.V3ErrorCode, align 1
  %6 = alloca %class.V3ErrorCode, align 1
  %7 = alloca %class.V3ErrorCode, align 1
  %8 = alloca ptr, align 8
  %9 = alloca ptr, align 8
  %10 = alloca %class.V3ErrorCode, align 1
  %11 = alloca ptr, align 8
  store ptr %0, ptr %3, align 8
  store ptr %1, ptr %4, align 8
  %12 = load ptr, ptr %3, align 8
  br label %13

13:                                               ; preds = %2
  %14 = load ptr, ptr %4, align 8
  %15 = call noundef ptr @_ZNK7AstNode5backpEv(ptr noundef nonnull align 8 dereferenceable(152) %14)
  %16 = icmp ne ptr %15, null
  %17 = xor i1 %16, true
  %18 = xor i1 %17, true
  %19 = xor i1 %18, true
  %20 = xor i1 %19, true
  br i1 %20, label %21, label %28

21:                                               ; preds = %13
  %22 = load ptr, ptr %4, align 8
  call void @_ZN11V3ErrorCodeC2ENS_2enE(ptr noundef nonnull align 1 dereferenceable(1) %5, i8 noundef zeroext 4)
  %23 = getelementptr inbounds %class.V3ErrorCode, ptr %5, i32 0, i32 0
  %24 = load i8, ptr %23, align 1
  %25 = call noundef nonnull align 8 dereferenceable(112) ptr @_ZN7V3Error19v3errorPrepFileLineB5cxx11E11V3ErrorCodePKcib(i8 %24, ptr noundef @.str.557, i32 noundef 733, i1 noundef zeroext false)
  %26 = call noundef nonnull align 8 dereferenceable(112) ptr @_ZN7V3Error10v3errorStrB5cxx11Ev()
  %27 = call noundef nonnull align 8 dereferenceable(8) ptr @_ZStlsISt11char_traitsIcEERSt13basic_ostreamIcT_ES5_PKc(ptr noundef nonnull align 8 dereferenceable(8) %26, ptr noundef @.str.621)
  call void @_ZNK7AstNode15v3errorEndFatalERNSt7__cxx1119basic_ostringstreamIcSt11char_traitsIcESaIcEEE(ptr noundef nonnull align 8 dereferenceable(152) %22, ptr noundef nonnull align 8 dereferenceable(112) %27) #17
  unreachable

28:                                               ; preds = %13
  br label %29

29:                                               ; preds = %28
  br label %30

30:                                               ; preds = %29
  %31 = getelementptr inbounds %class.AstNode, ptr %12, i32 0, i32 2
  %32 = load ptr, ptr %31, align 8
  %33 = icmp ne ptr %32, null
  %34 = xor i1 %33, true
  %35 = xor i1 %34, true
  %36 = xor i1 %35, true
  br i1 %36, label %37, label %43

37:                                               ; preds = %30
  call void @_ZN11V3ErrorCodeC2ENS_2enE(ptr noundef nonnull align 1 dereferenceable(1) %6, i8 noundef zeroext 4)
  %38 = getelementptr inbounds %class.V3ErrorCode, ptr %6, i32 0, i32 0
  %39 = load i8, ptr %38, align 1
  %40 = call noundef nonnull align 8 dereferenceable(112) ptr @_ZN7V3Error19v3errorPrepFileLineB5cxx11E11V3ErrorCodePKcib(i8 %39, ptr noundef @.str.557, i32 noundef 734, i1 noundef zeroext false)
  %41 = call noundef nonnull align 8 dereferenceable(112) ptr @_ZN7V3Error10v3errorStrB5cxx11Ev()
  %42 = call noundef nonnull align 8 dereferenceable(8) ptr @_ZStlsISt11char_traitsIcEERSt13basic_ostreamIcT_ES5_PKc(ptr noundef nonnull align 8 dereferenceable(8) %41, ptr noundef @.str.627)
  call void @_ZNK7AstNode15v3errorEndFatalERNSt7__cxx1119basic_ostringstreamIcSt11char_traitsIcESaIcEEE(ptr noundef nonnull align 8 dereferenceable(152) %12, ptr noundef nonnull align 8 dereferenceable(112) %42) #17
  unreachable

43:                                               ; preds = %30
  br label %44

44:                                               ; preds = %43
  br label %45

45:                                               ; preds = %44
  %46 = load ptr, ptr %4, align 8
  %47 = getelementptr inbounds %class.AstNode, ptr %46, i32 0, i32 13
  %48 = load ptr, ptr %47, align 8
  %49 = icmp ne ptr %48, null
  %50 = xor i1 %49, true
  %51 = xor i1 %50, true
  %52 = xor i1 %51, true
  br i1 %52, label %53, label %60

53:                                               ; preds = %45
  %54 = load ptr, ptr %4, align 8
  call void @_ZN11V3ErrorCodeC2ENS_2enE(ptr noundef nonnull align 1 dereferenceable(1) %7, i8 noundef zeroext 4)
  %55 = getelementptr inbounds %class.V3ErrorCode, ptr %7, i32 0, i32 0
  %56 = load i8, ptr %55, align 1
  %57 = call noundef nonnull align 8 dereferenceable(112) ptr @_ZN7V3Error19v3errorPrepFileLineB5cxx11E11V3ErrorCodePKcib(i8 %56, ptr noundef @.str.557, i32 noundef 735, i1 noundef zeroext false)
  %58 = call noundef nonnull align 8 dereferenceable(112) ptr @_ZN7V3Error10v3errorStrB5cxx11Ev()
  %59 = call noundef nonnull align 8 dereferenceable(8) ptr @_ZStlsISt11char_traitsIcEERSt13basic_ostreamIcT_ES5_PKc(ptr noundef nonnull align 8 dereferenceable(8) %58, ptr noundef @.str.628)
  call void @_ZNK7AstNode15v3errorEndFatalERNSt7__cxx1119basic_ostringstreamIcSt11char_traitsIcESaIcEEE(ptr noundef nonnull align 8 dereferenceable(152) %54, ptr noundef nonnull align 8 dereferenceable(112) %59) #17
  unreachable

60:                                               ; preds = %45
  br label %61

61:                                               ; preds = %60
  %62 = getelementptr inbounds %class.AstNode, ptr %12, i32 0, i32 2
  %63 = load ptr, ptr %62, align 8
  store ptr %63, ptr %8, align 8
  %64 = load ptr, ptr %4, align 8
  %65 = getelementptr inbounds %class.AstNode, ptr %64, i32 0, i32 13
  %66 = load ptr, ptr %65, align 8
  store ptr %66, ptr %9, align 8
  call void @_ZN7AstNode12editCountIncEv(ptr noundef nonnull align 8 dereferenceable(152) %12)
  %67 = load ptr, ptr %9, align 8
  %68 = getelementptr inbounds %class.AstNode, ptr %67, i32 0, i32 1
  store ptr %12, ptr %68, align 8
  %69 = load ptr, ptr %9, align 8
  %70 = getelementptr inbounds %class.AstNode, ptr %12, i32 0, i32 2
  store ptr %69, ptr %70, align 8
  %71 = load ptr, ptr %8, align 8
  %72 = load ptr, ptr %4, align 8
  %73 = getelementptr inbounds %class.AstNode, ptr %72, i32 0, i32 2
  store ptr %71, ptr %73, align 8
  %74 = load ptr, ptr %9, align 8
  %75 = getelementptr inbounds %class.AstNode, ptr %74, i32 0, i32 13
  store ptr null, ptr %75, align 8
  %76 = load ptr, ptr %8, align 8
  %77 = icmp ne ptr %76, null
  br i1 %77, label %78, label %89

78:                                               ; preds = %61
  %79 = load ptr, ptr %8, align 8
  %80 = getelementptr inbounds %class.AstNode, ptr %79, i32 0, i32 1
  %81 = load ptr, ptr %80, align 8
  %82 = icmp eq ptr %81, %12
  br i1 %82, label %83, label %89

83:                                               ; preds = %78
  %84 = load ptr, ptr %4, align 8
  %85 = load ptr, ptr %8, align 8
  %86 = getelementptr inbounds %class.AstNode, ptr %85, i32 0, i32 1
  store ptr %84, ptr %86, align 8
  %87 = load ptr, ptr %4, align 8
  %88 = getelementptr inbounds %class.AstNode, ptr %87, i32 0, i32 13
  store ptr null, ptr %88, align 8
  br label %152

89:                                               ; preds = %78, %61
  %90 = load ptr, ptr %8, align 8
  %91 = icmp ne ptr %90, null
  br i1 %91, label %92, label %142

92:                                               ; preds = %89
  %93 = load ptr, ptr %8, align 8
  %94 = getelementptr inbounds %class.AstNode, ptr %93, i32 0, i32 3
  %95 = load ptr, ptr %94, align 8
  %96 = icmp eq ptr %95, %12
  br i1 %96, label %97, label %101

97:                                               ; preds = %92
  %98 = load ptr, ptr %4, align 8
  %99 = load ptr, ptr %8, align 8
  %100 = getelementptr inbounds %class.AstNode, ptr %99, i32 0, i32 3
  store ptr %98, ptr %100, align 8
  br label %141

101:                                              ; preds = %92
  %102 = load ptr, ptr %8, align 8
  %103 = getelementptr inbounds %class.AstNode, ptr %102, i32 0, i32 4
  %104 = load ptr, ptr %103, align 8
  %105 = icmp eq ptr %104, %12
  br i1 %105, label %106, label %110

106:                                              ; preds = %101
  %107 = load ptr, ptr %4, align 8
  %108 = load ptr, ptr %8, align 8
  %109 = getelementptr inbounds %class.AstNode, ptr %108, i32 0, i32 4
  store ptr %107, ptr %109, align 8
  br label %140

110:                                              ; preds = %101
  %111 = load ptr, ptr %8, align 8
  %112 = getelementptr inbounds %class.AstNode, ptr %111, i32 0, i32 5
  %113 = load ptr, ptr %112, align 8
  %114 = icmp eq ptr %113, %12
  br i1 %114, label %115, label %119

115:                                              ; preds = %110
  %116 = load ptr, ptr %4, align 8
  %117 = load ptr, ptr %8, align 8
  %118 = getelementptr inbounds %class.AstNode, ptr %117, i32 0, i32 5
  store ptr %116, ptr %118, align 8
  br label %139

119:                                              ; preds = %110
  br label %120

120:                                              ; preds = %119
  %121 = load ptr, ptr %8, align 8
  %122 = getelementptr inbounds %class.AstNode, ptr %121, i32 0, i32 6
  %123 = load ptr, ptr %122, align 8
  %124 = icmp eq ptr %123, %12
  %125 = xor i1 %124, true
  %126 = xor i1 %125, true
  %127 = xor i1 %126, true
  br i1 %127, label %128, label %134

128:                                              ; preds = %120
  call void @_ZN11V3ErrorCodeC2ENS_2enE(ptr noundef nonnull align 1 dereferenceable(1) %10, i8 noundef zeroext 4)
  %129 = getelementptr inbounds %class.V3ErrorCode, ptr %10, i32 0, i32 0
  %130 = load i8, ptr %129, align 1
  %131 = call noundef nonnull align 8 dereferenceable(112) ptr @_ZN7V3Error19v3errorPrepFileLineB5cxx11E11V3ErrorCodePKcib(i8 %130, ptr noundef @.str.557, i32 noundef 764, i1 noundef zeroext false)
  %132 = call noundef nonnull align 8 dereferenceable(112) ptr @_ZN7V3Error10v3errorStrB5cxx11Ev()
  %133 = call noundef nonnull align 8 dereferenceable(8) ptr @_ZStlsISt11char_traitsIcEERSt13basic_ostreamIcT_ES5_PKc(ptr noundef nonnull align 8 dereferenceable(8) %132, ptr noundef @.str.629)
  call void @_ZNK7AstNode15v3errorEndFatalERNSt7__cxx1119basic_ostringstreamIcSt11char_traitsIcESaIcEEE(ptr noundef nonnull align 8 dereferenceable(152) %12, ptr noundef nonnull align 8 dereferenceable(112) %133) #17
  unreachable

134:                                              ; preds = %120
  br label %135

135:                                              ; preds = %134
  %136 = load ptr, ptr %4, align 8
  %137 = load ptr, ptr %8, align 8
  %138 = getelementptr inbounds %class.AstNode, ptr %137, i32 0, i32 6
  store ptr %136, ptr %138, align 8
  br label %139

139:                                              ; preds = %135, %115
  br label %140

140:                                              ; preds = %139, %106
  br label %141

141:                                              ; preds = %140, %97
  br label %142

142:                                              ; preds = %141, %89
  %143 = getelementptr inbounds %class.AstNode, ptr %12, i32 0, i32 13
  %144 = load ptr, ptr %143, align 8
  store ptr %144, ptr %11, align 8
  %145 = getelementptr inbounds %class.AstNode, ptr %12, i32 0, i32 13
  store ptr null, ptr %145, align 8
  %146 = load ptr, ptr %11, align 8
  %147 = load ptr, ptr %4, align 8
  %148 = getelementptr inbounds %class.AstNode, ptr %147, i32 0, i32 13
  store ptr %146, ptr %148, align 8
  %149 = load ptr, ptr %4, align 8
  %150 = load ptr, ptr %11, align 8
  %151 = getelementptr inbounds %class.AstNode, ptr %150, i32 0, i32 13
  store ptr %149, ptr %151, align 8
  br label %152

152:                                              ; preds = %142, %83
  %153 = load ptr, ptr %9, align 8
  %154 = getelementptr inbounds %class.AstNode, ptr %153, i32 0, i32 7
  %155 = load ptr, ptr %154, align 8
  %156 = icmp ne ptr %155, null
  br i1 %156, label %157, label %161

157:                                              ; preds = %152
  %158 = load ptr, ptr %9, align 8
  %159 = getelementptr inbounds %class.AstNode, ptr %158, i32 0, i32 7
  %160 = load ptr, ptr %159, align 8
  store ptr %12, ptr %160, align 8
  br label %161

161:                                              ; preds = %157, %152
  %162 = getelementptr inbounds %class.AstNode, ptr %12, i32 0, i32 7
  %163 = load ptr, ptr %162, align 8
  %164 = icmp ne ptr %163, null
  br i1 %164, label %165, label %170

165:                                              ; preds = %161
  %166 = load ptr, ptr %4, align 8
  %167 = getelementptr inbounds %class.AstNode, ptr %12, i32 0, i32 7
  %168 = load ptr, ptr %167, align 8
  store ptr %166, ptr %168, align 8
  %169 = getelementptr inbounds %class.AstNode, ptr %12, i32 0, i32 7
  store ptr null, ptr %169, align 8
  br label %170

170:                                              ; preds = %165, %161
  call void @_ZN7AstNode15debugTreeChangeEPKS_PKcib(ptr noundef %12, ptr noundef @.str.630, i32 noundef 781, i1 noundef zeroext true)
  ret void
}