; Function Attrs: mustprogress uwtable
define dso_local void @_ZN7AstNode17addHereThisAsNextEPS_(ptr noundef nonnull align 8 dereferenceable(152) %0, ptr noundef %1) local_unnamed_addr #4 align 2 {
  %3 = getelementptr inbounds i8, ptr %1, i64 16
  %4 = load ptr, ptr %3, align 8
  %.not = icmp eq ptr %4, null
  br i1 %.not, label %9, label %5

5:                                                ; preds = %2
  %6 = tail call noundef nonnull align 8 dereferenceable(112) ptr @_ZN7V3Error19v3errorPrepFileLineB5cxx11E11V3ErrorCodePKcib(i8 4, ptr noundef nonnull @.str.557, i32 noundef 733, i1 noundef zeroext false)
  %7 = tail call noundef nonnull align 8 dereferenceable(112) ptr @_ZN7V3Error10v3errorStrB5cxx11Ev()
  %8 = tail call noundef nonnull align 8 dereferenceable(8) ptr @_ZStlsISt11char_traitsIcEERSt13basic_ostreamIcT_ES5_PKc(ptr noundef nonnull align 8 dereferenceable(8) %7, ptr noundef nonnull @.str.621)
  tail call void @_ZNK7AstNode15v3errorEndFatalERNSt7__cxx1119basic_ostringstreamIcSt11char_traitsIcESaIcEEE(ptr noundef nonnull align 8 dereferenceable(152) %1, ptr noundef nonnull align 8 dereferenceable(112) %8) #25
  unreachable

9:                                                ; preds = %2
  %10 = getelementptr inbounds i8, ptr %0, i64 16
  %11 = load ptr, ptr %10, align 8
  %.not39 = icmp eq ptr %11, null
  br i1 %.not39, label %12, label %16

12:                                               ; preds = %9
  %13 = tail call noundef nonnull align 8 dereferenceable(112) ptr @_ZN7V3Error19v3errorPrepFileLineB5cxx11E11V3ErrorCodePKcib(i8 4, ptr noundef nonnull @.str.557, i32 noundef 734, i1 noundef zeroext false)
  %14 = tail call noundef nonnull align 8 dereferenceable(112) ptr @_ZN7V3Error10v3errorStrB5cxx11Ev()
  %15 = tail call noundef nonnull align 8 dereferenceable(8) ptr @_ZStlsISt11char_traitsIcEERSt13basic_ostreamIcT_ES5_PKc(ptr noundef nonnull align 8 dereferenceable(8) %14, ptr noundef nonnull @.str.627)
  tail call void @_ZNK7AstNode15v3errorEndFatalERNSt7__cxx1119basic_ostringstreamIcSt11char_traitsIcESaIcEEE(ptr noundef nonnull align 8 dereferenceable(152) %0, ptr noundef nonnull align 8 dereferenceable(112) %15) #25
  unreachable

16:                                               ; preds = %9
  %17 = getelementptr inbounds i8, ptr %1, i64 80
  %18 = load ptr, ptr %17, align 8
  %.not40 = icmp eq ptr %18, null
  br i1 %.not40, label %19, label %23

19:                                               ; preds = %16
  %20 = tail call noundef nonnull align 8 dereferenceable(112) ptr @_ZN7V3Error19v3errorPrepFileLineB5cxx11E11V3ErrorCodePKcib(i8 4, ptr noundef nonnull @.str.557, i32 noundef 735, i1 noundef zeroext false)
  %21 = tail call noundef nonnull align 8 dereferenceable(112) ptr @_ZN7V3Error10v3errorStrB5cxx11Ev()
  %22 = tail call noundef nonnull align 8 dereferenceable(8) ptr @_ZStlsISt11char_traitsIcEERSt13basic_ostreamIcT_ES5_PKc(ptr noundef nonnull align 8 dereferenceable(8) %21, ptr noundef nonnull @.str.628)
  tail call void @_ZNK7AstNode15v3errorEndFatalERNSt7__cxx1119basic_ostringstreamIcSt11char_traitsIcESaIcEEE(ptr noundef nonnull align 8 dereferenceable(152) %1, ptr noundef nonnull align 8 dereferenceable(112) %22) #25
  unreachable

23:                                               ; preds = %16
  %24 = load i64, ptr @_ZN7AstNode12s_editCntGblE, align 8
  %25 = add i64 %24, 1
  store i64 %25, ptr @_ZN7AstNode12s_editCntGblE, align 8
  %26 = getelementptr inbounds i8, ptr %18, i64 8
  store ptr %0, ptr %26, align 8
  store ptr %18, ptr %10, align 8
  store ptr %11, ptr %3, align 8
  %27 = getelementptr inbounds i8, ptr %18, i64 80
  store ptr null, ptr %27, align 8
  %28 = getelementptr inbounds i8, ptr %11, i64 8
  %29 = load ptr, ptr %28, align 8
  %30 = icmp eq ptr %29, %0
  br i1 %30, label %31, label %32

31:                                               ; preds = %23
  store ptr %1, ptr %28, align 8
  store ptr null, ptr %17, align 8
  br label %54

32:                                               ; preds = %23
  %33 = getelementptr inbounds i8, ptr %11, i64 24
  %34 = load ptr, ptr %33, align 8
  %35 = icmp eq ptr %34, %0
  br i1 %35, label %.critedge, label %36

36:                                               ; preds = %32
  %37 = getelementptr inbounds i8, ptr %11, i64 32
  %38 = load ptr, ptr %37, align 8
  %39 = icmp eq ptr %38, %0
  br i1 %39, label %.critedge, label %40

40:                                               ; preds = %36
  %41 = getelementptr inbounds i8, ptr %11, i64 40
  %42 = load ptr, ptr %41, align 8
  %43 = icmp eq ptr %42, %0
  br i1 %43, label %.critedge, label %44

44:                                               ; preds = %40
  %45 = getelementptr inbounds i8, ptr %11, i64 48
  %46 = load ptr, ptr %45, align 8
  %.not41 = icmp eq ptr %46, %0
  br i1 %.not41, label %.critedge, label %47

47:                                               ; preds = %44
  %48 = tail call noundef nonnull align 8 dereferenceable(112) ptr @_ZN7V3Error19v3errorPrepFileLineB5cxx11E11V3ErrorCodePKcib(i8 4, ptr noundef nonnull @.str.557, i32 noundef 764, i1 noundef zeroext false)
  %49 = tail call noundef nonnull align 8 dereferenceable(112) ptr @_ZN7V3Error10v3errorStrB5cxx11Ev()
  %50 = tail call noundef nonnull align 8 dereferenceable(8) ptr @_ZStlsISt11char_traitsIcEERSt13basic_ostreamIcT_ES5_PKc(ptr noundef nonnull align 8 dereferenceable(8) %49, ptr noundef nonnull @.str.629)
  tail call void @_ZNK7AstNode15v3errorEndFatalERNSt7__cxx1119basic_ostringstreamIcSt11char_traitsIcESaIcEEE(ptr noundef nonnull align 8 dereferenceable(152) %0, ptr noundef nonnull align 8 dereferenceable(112) %50) #25
  unreachable

.critedge:                                        ; preds = %44, %40, %36, %32
  %.sink = phi ptr [ %33, %32 ], [ %37, %36 ], [ %41, %40 ], [ %45, %44 ]
  store ptr %1, ptr %.sink, align 8
  %51 = getelementptr inbounds i8, ptr %0, i64 80
  %52 = load ptr, ptr %51, align 8
  store ptr null, ptr %51, align 8
  store ptr %52, ptr %17, align 8
  %53 = getelementptr inbounds i8, ptr %52, i64 80
  store ptr %1, ptr %53, align 8
  br label %54

54:                                               ; preds = %.critedge, %31
  %55 = getelementptr inbounds i8, ptr %18, i64 56
  %56 = load ptr, ptr %55, align 8
  %.not42 = icmp eq ptr %56, null
  br i1 %.not42, label %58, label %57

57:                                               ; preds = %54
  store ptr %0, ptr %56, align 8
  br label %58

58:                                               ; preds = %57, %54
  %59 = getelementptr inbounds i8, ptr %0, i64 56
  %60 = load ptr, ptr %59, align 8
  %.not43 = icmp eq ptr %60, null
  br i1 %.not43, label %62, label %61

61:                                               ; preds = %58
  store ptr %1, ptr %60, align 8
  store ptr null, ptr %59, align 8
  br label %62

62:                                               ; preds = %61, %58
  ret void
}